; ModuleID = '24/1437.c'
source_filename = "24/1437.c"
target datalayout = "e-m:e-p270:32:32-p271:32:32-p272:64:64-i64:64-f80:128-n8:16:32:64-S128"
target triple = "x86_64-pc-linux-gnu"

@.str = private unnamed_addr constant [4 x i8] c"%s\0A\00", align 1

; Function Attrs: noinline nounwind uwtable
define dso_local i32 @main() #0 {
  %1 = alloca i32, align 4
  %2 = alloca i32, align 4
  %3 = alloca i32, align 4
  %4 = alloca i32, align 4
  %5 = alloca [100 x [100 x i8]], align 16
  %6 = alloca [3000 x i8], align 16
  %7 = alloca [100 x i8], align 16
  %8 = alloca [100 x i8], align 16
  store i32 0, i32* %1, align 4
  %9 = bitcast [100 x [100 x i8]]* %5 to i8*
  call void @llvm.memset.p0i8.i64(i8* align 16 %9, i8 0, i64 10000, i1 false)
  %10 = bitcast i8* %9 to <{ <{ i8, [99 x i8] }>, [99 x <{ i8, [99 x i8] }>] }>*
  %11 = getelementptr inbounds <{ <{ i8, [99 x i8] }>, [99 x <{ i8, [99 x i8] }>] }>, <{ <{ i8, [99 x i8] }>, [99 x <{ i8, [99 x i8] }>] }>* %10, i32 0, i32 0
  %12 = getelementptr inbounds <{ i8, [99 x i8] }>, <{ i8, [99 x i8] }>* %11, i32 0, i32 0
  store i8 48, i8* %12, align 16
  %13 = getelementptr inbounds [3000 x i8], [3000 x i8]* %6, i64 0, i64 0
  %14 = call i32 (i8*, ...) bitcast (i32 (...)* @gets to i32 (i8*, ...)*)(i8* %13)
  store i32 0, i32* %2, align 4
  store i32 0, i32* %3, align 4
  store i32 0, i32* %4, align 4
  br label %15

15:                                               ; preds = %47, %0
  %16 = load i32, i32* %2, align 4
  %17 = sext i32 %16 to i64
  %18 = getelementptr inbounds [3000 x i8], [3000 x i8]* %6, i64 0, i64 %17
  %19 = load i8, i8* %18, align 1
  %20 = sext i8 %19 to i32
  %21 = icmp ne i32 %20, 0
  br i1 %21, label %22, label %50

22:                                               ; preds = %15
  %23 = load i32, i32* %2, align 4
  %24 = sext i32 %23 to i64
  %25 = getelementptr inbounds [3000 x i8], [3000 x i8]* %6, i64 0, i64 %24
  %26 = load i8, i8* %25, align 1
  %27 = sext i8 %26 to i32
  %28 = icmp eq i32 %27, 32
  br i1 %28, label %29, label %46

29:                                               ; preds = %22
  %30 = load i32, i32* %2, align 4
  %31 = sext i32 %30 to i64
  %32 = getelementptr inbounds [3000 x i8], [3000 x i8]* %6, i64 0, i64 %31
  store i8 0, i8* %32, align 1
  %33 = load i32, i32* %4, align 4
  %34 = sext i32 %33 to i64
  %35 = getelementptr inbounds [100 x [100 x i8]], [100 x [100 x i8]]* %5, i64 0, i64 %34
  %36 = getelementptr inbounds [100 x i8], [100 x i8]* %35, i64 0, i64 0
  %37 = getelementptr inbounds [3000 x i8], [3000 x i8]* %6, i64 0, i64 0
  %38 = load i32, i32* %3, align 4
  %39 = sext i32 %38 to i64
  %40 = getelementptr inbounds i8, i8* %37, i64 %39
  %41 = call i8* @strcpy(i8* %36, i8* %40) #5
  %42 = load i32, i32* %2, align 4
  %43 = add nsw i32 %42, 1
  store i32 %43, i32* %3, align 4
  %44 = load i32, i32* %4, align 4
  %45 = add nsw i32 %44, 1
  store i32 %45, i32* %4, align 4
  br label %46

46:                                               ; preds = %29, %22
  br label %47

47:                                               ; preds = %46
  %48 = load i32, i32* %2, align 4
  %49 = add nsw i32 %48, 1
  store i32 %49, i32* %2, align 4
  br label %15

50:                                               ; preds = %15
  %51 = load i32, i32* %4, align 4
  %52 = sext i32 %51 to i64
  %53 = getelementptr inbounds [100 x [100 x i8]], [100 x [100 x i8]]* %5, i64 0, i64 %52
  %54 = getelementptr inbounds [100 x i8], [100 x i8]* %53, i64 0, i64 0
  %55 = getelementptr inbounds [3000 x i8], [3000 x i8]* %6, i64 0, i64 0
  %56 = load i32, i32* %3, align 4
  %57 = sext i32 %56 to i64
  %58 = getelementptr inbounds i8, i8* %55, i64 %57
  %59 = call i8* @strcpy(i8* %54, i8* %58) #5
  %60 = load i32, i32* %4, align 4
  %61 = add nsw i32 %60, 1
  store i32 %61, i32* %4, align 4
  %62 = getelementptr inbounds [100 x i8], [100 x i8]* %7, i64 0, i64 0
  %63 = getelementptr inbounds [100 x [100 x i8]], [100 x [100 x i8]]* %5, i64 0, i64 0
  %64 = getelementptr inbounds [100 x i8], [100 x i8]* %63, i64 0, i64 0
  %65 = call i8* @strcpy(i8* %62, i8* %64) #5
  %66 = getelementptr inbounds [100 x i8], [100 x i8]* %8, i64 0, i64 0
  %67 = getelementptr inbounds [100 x [100 x i8]], [100 x [100 x i8]]* %5, i64 0, i64 0
  %68 = getelementptr inbounds [100 x i8], [100 x i8]* %67, i64 0, i64 0
  %69 = call i8* @strcpy(i8* %66, i8* %68) #5
  store i32 0, i32* %2, align 4
  br label %70

70:                                               ; preds = %112, %50
  %71 = load i32, i32* %2, align 4
  %72 = load i32, i32* %4, align 4
  %73 = sub nsw i32 %72, 1
  %74 = icmp slt i32 %71, %73
  br i1 %74, label %75, label %115

75:                                               ; preds = %70
  %76 = getelementptr inbounds [100 x i8], [100 x i8]* %7, i64 0, i64 0
  %77 = call i64 @strlen(i8* %76) #6
  %78 = load i32, i32* %2, align 4
  %79 = add nsw i32 %78, 1
  %80 = sext i32 %79 to i64
  %81 = getelementptr inbounds [100 x [100 x i8]], [100 x [100 x i8]]* %5, i64 0, i64 %80
  %82 = getelementptr inbounds [100 x i8], [100 x i8]* %81, i64 0, i64 0
  %83 = call i64 @strlen(i8* %82) #6
  %84 = icmp ult i64 %77, %83
  br i1 %84, label %85, label %93

85:                                               ; preds = %75
  %86 = getelementptr inbounds [100 x i8], [100 x i8]* %7, i64 0, i64 0
  %87 = load i32, i32* %2, align 4
  %88 = add nsw i32 %87, 1
  %89 = sext i32 %88 to i64
  %90 = getelementptr inbounds [100 x [100 x i8]], [100 x [100 x i8]]* %5, i64 0, i64 %89
  %91 = getelementptr inbounds [100 x i8], [100 x i8]* %90, i64 0, i64 0
  %92 = call i8* @strcpy(i8* %86, i8* %91) #5
  br label %93

93:                                               ; preds = %85, %75
  %94 = getelementptr inbounds [100 x i8], [100 x i8]* %8, i64 0, i64 0
  %95 = call i64 @strlen(i8* %94) #6
  %96 = load i32, i32* %2, align 4
  %97 = add nsw i32 %96, 1
  %98 = sext i32 %97 to i64
  %99 = getelementptr inbounds [100 x [100 x i8]], [100 x [100 x i8]]* %5, i64 0, i64 %98
  %100 = getelementptr inbounds [100 x i8], [100 x i8]* %99, i64 0, i64 0
  %101 = call i64 @strlen(i8* %100) #6
  %102 = icmp ugt i64 %95, %101
  br i1 %102, label %103, label %111

103:                                              ; preds = %93
  %104 = getelementptr inbounds [100 x i8], [100 x i8]* %8, i64 0, i64 0
  %105 = load i32, i32* %2, align 4
  %106 = add nsw i32 %105, 1
  %107 = sext i32 %106 to i64
  %108 = getelementptr inbounds [100 x [100 x i8]], [100 x [100 x i8]]* %5, i64 0, i64 %107
  %109 = getelementptr inbounds [100 x i8], [100 x i8]* %108, i64 0, i64 0
  %110 = call i8* @strcpy(i8* %104, i8* %109) #5
  br label %111

111:                                              ; preds = %103, %93
  br label %112

112:                                              ; preds = %111
  %113 = load i32, i32* %2, align 4
  %114 = add nsw i32 %113, 1
  store i32 %114, i32* %2, align 4
  br label %70

115:                                              ; preds = %70
  %116 = getelementptr inbounds [100 x i8], [100 x i8]* %7, i64 0, i64 0
  %117 = call i32 (i8*, ...) @printf(i8* getelementptr inbounds ([4 x i8], [4 x i8]* @.str, i64 0, i64 0), i8* %116)
  %118 = getelementptr inbounds [100 x i8], [100 x i8]* %8, i64 0, i64 0
  %119 = call i32 (i8*, ...) @printf(i8* getelementptr inbounds ([4 x i8], [4 x i8]* @.str, i64 0, i64 0), i8* %118)
  ret i32 0
}

; Function Attrs: argmemonly nounwind willreturn
declare void @llvm.memset.p0i8.i64(i8* nocapture writeonly, i8, i64, i1 immarg) #1

declare dso_local i32 @gets(...) #2

; Function Attrs: nounwind
declare dso_local i8* @strcpy(i8*, i8*) #3

; Function Attrs: nounwind readonly
declare dso_local i64 @strlen(i8*) #4

declare dso_local i32 @printf(i8*, ...) #2


!llvm.module.flags = !{!0}
!llvm.ident = !{!1}

!0 = !{i32 1, !"wchar_size", i32 4}
!1 = !{!"clang version 10.0.0-4ubuntu1 "}
